; Function Attrs: mustprogress nounwind uwtable
define void @_ZN6icu_7717RuleBasedTimeZone11deleteRulesEv(ptr noundef nonnull align 8 captures(none) dereferenceable(105) %0) local_unnamed_addr #5 align 2 {
  %2 = getelementptr inbounds nuw i8, ptr %0, i64 72
  %3 = load ptr, ptr %2, align 8, !tbaa !6
  %4 = icmp eq ptr %3, null
  br i1 %4, label %9, label %5

5:                                                ; preds = %1
  %6 = load ptr, ptr %3, align 8, !tbaa !3
  %7 = getelementptr inbounds nuw i8, ptr %6, i64 8
  %8 = load ptr, ptr %7, align 8
  tail call void %8(ptr noundef nonnull align 8 dereferenceable(80) %3) #14
  br label %9

9:                                                ; preds = %5, %1
  store ptr null, ptr %2, align 8, !tbaa !6
  %10 = getelementptr inbounds nuw i8, ptr %0, i64 80
  %11 = load ptr, ptr %10, align 8, !tbaa !19
  %.not = icmp eq ptr %11, null
  br i1 %.not, label %16, label %12

12:                                               ; preds = %9
  %13 = load ptr, ptr %11, align 8, !tbaa !3
  %14 = getelementptr inbounds nuw i8, ptr %13, i64 8
  %15 = load ptr, ptr %14, align 8
  tail call void %15(ptr noundef nonnull align 8 dereferenceable(40) %11) #14
  store ptr null, ptr %10, align 8, !tbaa !19
  br label %16

16:                                               ; preds = %12, %9
  %17 = getelementptr inbounds nuw i8, ptr %0, i64 88
  %18 = load ptr, ptr %17, align 8, !tbaa !20
  %.not3 = icmp eq ptr %18, null
  br i1 %.not3, label %23, label %19

19:                                               ; preds = %16
  %20 = load ptr, ptr %18, align 8, !tbaa !3
  %21 = getelementptr inbounds nuw i8, ptr %20, i64 8
  %22 = load ptr, ptr %21, align 8
  tail call void %22(ptr noundef nonnull align 8 dereferenceable(40) %18) #14
  store ptr null, ptr %17, align 8, !tbaa !20
  br label %23

23:                                               ; preds = %19, %16
  ret void
}